; ModuleID = '55/588.c'
source_filename = "55/588.c"
target datalayout = "e-m:e-p270:32:32-p271:32:32-p272:64:64-i64:64-f80:128-n8:16:32:64-S128"
target triple = "x86_64-pc-linux-gnu"

@.str = private unnamed_addr constant [9 x i8] c"%d %s %d\00", align 1
@.str.1 = private unnamed_addr constant [2 x i8] c"0\00", align 1
@.str.2 = private unnamed_addr constant [3 x i8] c"%c\00", align 1

; Function Attrs: noinline nounwind uwtable
define dso_local void @main() #0 {
  %1 = alloca i64, align 8
  %2 = alloca i64, align 8
  %3 = alloca i32, align 4
  %4 = alloca i32, align 4
  %5 = alloca i32, align 4
  %6 = alloca i32, align 4
  %7 = alloca i32, align 4
  %8 = alloca i32, align 4
  %9 = alloca i32, align 4
  %10 = alloca [20 x i8], align 16
  %11 = alloca [20 x i8], align 16
  store i64 0, i64* %1, align 8
  store i32 0, i32* %9, align 4
  %12 = getelementptr inbounds [20 x i8], [20 x i8]* %10, i64 0, i64 0
  %13 = call i32 (i8*, ...) @__isoc99_scanf(i8* getelementptr inbounds ([9 x i8], [9 x i8]* @.str, i64 0, i64 0), i32* %3, i8* %12, i32* %4)
  %14 = getelementptr inbounds [20 x i8], [20 x i8]* %10, i64 0, i64 0
  %15 = call i64 @strlen(i8* %14) #3
  %16 = trunc i64 %15 to i32
  store i32 %16, i32* %8, align 4
  store i32 0, i32* %5, align 4
  br label %17

17:                                               ; preds = %107, %0
  %18 = load i32, i32* %5, align 4
  %19 = load i32, i32* %8, align 4
  %20 = icmp slt i32 %18, %19
  br i1 %20, label %21, label %110

21:                                               ; preds = %17
  %22 = load i32, i32* %5, align 4
  %23 = sext i32 %22 to i64
  %24 = getelementptr inbounds [20 x i8], [20 x i8]* %10, i64 0, i64 %23
  %25 = load i8, i8* %24, align 1
  %26 = sext i8 %25 to i32
  %27 = icmp sge i32 %26, 48
  br i1 %27, label %28, label %42

28:                                               ; preds = %21
  %29 = load i32, i32* %5, align 4
  %30 = sext i32 %29 to i64
  %31 = getelementptr inbounds [20 x i8], [20 x i8]* %10, i64 0, i64 %30
  %32 = load i8, i8* %31, align 1
  %33 = sext i8 %32 to i32
  %34 = icmp sle i32 %33, 57
  br i1 %34, label %35, label %42

35:                                               ; preds = %28
  %36 = load i32, i32* %5, align 4
  %37 = sext i32 %36 to i64
  %38 = getelementptr inbounds [20 x i8], [20 x i8]* %10, i64 0, i64 %37
  %39 = load i8, i8* %38, align 1
  %40 = sext i8 %39 to i32
  %41 = sub nsw i32 %40, 48
  store i32 %41, i32* %7, align 4
  br label %42

42:                                               ; preds = %35, %28, %21
  %43 = load i32, i32* %5, align 4
  %44 = sext i32 %43 to i64
  %45 = getelementptr inbounds [20 x i8], [20 x i8]* %10, i64 0, i64 %44
  %46 = load i8, i8* %45, align 1
  %47 = sext i8 %46 to i32
  %48 = icmp sge i32 %47, 97
  br i1 %48, label %49, label %64

49:                                               ; preds = %42
  %50 = load i32, i32* %5, align 4
  %51 = sext i32 %50 to i64
  %52 = getelementptr inbounds [20 x i8], [20 x i8]* %10, i64 0, i64 %51
  %53 = load i8, i8* %52, align 1
  %54 = sext i8 %53 to i32
  %55 = icmp sle i32 %54, 122
  br i1 %55, label %56, label %64

56:                                               ; preds = %49
  %57 = load i32, i32* %5, align 4
  %58 = sext i32 %57 to i64
  %59 = getelementptr inbounds [20 x i8], [20 x i8]* %10, i64 0, i64 %58
  %60 = load i8, i8* %59, align 1
  %61 = sext i8 %60 to i32
  %62 = sub nsw i32 %61, 97
  %63 = add nsw i32 %62, 10
  store i32 %63, i32* %7, align 4
  br label %64

64:                                               ; preds = %56, %49, %42
  %65 = load i32, i32* %5, align 4
  %66 = sext i32 %65 to i64
  %67 = getelementptr inbounds [20 x i8], [20 x i8]* %10, i64 0, i64 %66
  %68 = load i8, i8* %67, align 1
  %69 = sext i8 %68 to i32
  %70 = icmp sge i32 %69, 65
  br i1 %70, label %71, label %86

71:                                               ; preds = %64
  %72 = load i32, i32* %5, align 4
  %73 = sext i32 %72 to i64
  %74 = getelementptr inbounds [20 x i8], [20 x i8]* %10, i64 0, i64 %73
  %75 = load i8, i8* %74, align 1
  %76 = sext i8 %75 to i32
  %77 = icmp sle i32 %76, 90
  br i1 %77, label %78, label %86

78:                                               ; preds = %71
  %79 = load i32, i32* %5, align 4
  %80 = sext i32 %79 to i64
  %81 = getelementptr inbounds [20 x i8], [20 x i8]* %10, i64 0, i64 %80
  %82 = load i8, i8* %81, align 1
  %83 = sext i8 %82 to i32
  %84 = sub nsw i32 %83, 65
  %85 = add nsw i32 %84, 10
  store i32 %85, i32* %7, align 4
  br label %86

86:                                               ; preds = %78, %71, %64
  %87 = load i32, i32* %7, align 4
  %88 = sext i32 %87 to i64
  store i64 %88, i64* %2, align 8
  store i32 1, i32* %6, align 4
  br label %89

89:                                               ; preds = %100, %86
  %90 = load i32, i32* %6, align 4
  %91 = load i32, i32* %8, align 4
  %92 = load i32, i32* %5, align 4
  %93 = sub nsw i32 %91, %92
  %94 = icmp slt i32 %90, %93
  br i1 %94, label %95, label %103

95:                                               ; preds = %89
  %96 = load i64, i64* %2, align 8
  %97 = load i32, i32* %3, align 4
  %98 = sext i32 %97 to i64
  %99 = mul nsw i64 %96, %98
  store i64 %99, i64* %2, align 8
  br label %100

100:                                              ; preds = %95
  %101 = load i32, i32* %6, align 4
  %102 = add nsw i32 %101, 1
  store i32 %102, i32* %6, align 4
  br label %89

103:                                              ; preds = %89
  %104 = load i64, i64* %1, align 8
  %105 = load i64, i64* %2, align 8
  %106 = add nsw i64 %104, %105
  store i64 %106, i64* %1, align 8
  br label %107

107:                                              ; preds = %103
  %108 = load i32, i32* %5, align 4
  %109 = add nsw i32 %108, 1
  store i32 %109, i32* %5, align 4
  br label %17

110:                                              ; preds = %17
  %111 = load i64, i64* %1, align 8
  %112 = icmp eq i64 %111, 0
  br i1 %112, label %113, label %115

113:                                              ; preds = %110
  %114 = call i32 (i8*, ...) @printf(i8* getelementptr inbounds ([2 x i8], [2 x i8]* @.str.1, i64 0, i64 0))
  br label %115

115:                                              ; preds = %113, %110
  store i32 0, i32* %5, align 4
  br label %116

116:                                              ; preds = %151, %115
  %117 = load i64, i64* %1, align 8
  %118 = icmp sgt i64 %117, 0
  br i1 %118, label %119, label %154

119:                                              ; preds = %116
  %120 = load i64, i64* %1, align 8
  %121 = load i32, i32* %4, align 4
  %122 = sext i32 %121 to i64
  %123 = srem i64 %120, %122
  %124 = icmp slt i64 %123, 10
  br i1 %124, label %125, label %135

125:                                              ; preds = %119
  %126 = load i64, i64* %1, align 8
  %127 = load i32, i32* %4, align 4
  %128 = sext i32 %127 to i64
  %129 = srem i64 %126, %128
  %130 = add nsw i64 %129, 48
  %131 = trunc i64 %130 to i8
  %132 = load i32, i32* %5, align 4
  %133 = sext i32 %132 to i64
  %134 = getelementptr inbounds [20 x i8], [20 x i8]* %11, i64 0, i64 %133
  store i8 %131, i8* %134, align 1
  br label %146

135:                                              ; preds = %119
  %136 = load i64, i64* %1, align 8
  %137 = load i32, i32* %4, align 4
  %138 = sext i32 %137 to i64
  %139 = srem i64 %136, %138
  %140 = add nsw i64 %139, 65
  %141 = sub nsw i64 %140, 10
  %142 = trunc i64 %141 to i8
  %143 = load i32, i32* %5, align 4
  %144 = sext i32 %143 to i64
  %145 = getelementptr inbounds [20 x i8], [20 x i8]* %11, i64 0, i64 %144
  store i8 %142, i8* %145, align 1
  br label %146

146:                                              ; preds = %135, %125
  %147 = load i64, i64* %1, align 8
  %148 = load i32, i32* %4, align 4
  %149 = sext i32 %148 to i64
  %150 = sdiv i64 %147, %149
  store i64 %150, i64* %1, align 8
  br label %151

151:                                              ; preds = %146
  %152 = load i32, i32* %5, align 4
  %153 = add nsw i32 %152, 1
  store i32 %153, i32* %5, align 4
  br label %116

154:                                              ; preds = %116
  %155 = load i32, i32* %5, align 4
  %156 = sub nsw i32 %155, 1
  store i32 %156, i32* %6, align 4
  br label %157

157:                                              ; preds = %167, %154
  %158 = load i32, i32* %6, align 4
  %159 = icmp sge i32 %158, 0
  br i1 %159, label %160, label %170

160:                                              ; preds = %157
  %161 = load i32, i32* %6, align 4
  %162 = sext i32 %161 to i64
  %163 = getelementptr inbounds [20 x i8], [20 x i8]* %11, i64 0, i64 %162
  %164 = load i8, i8* %163, align 1
  %165 = sext i8 %164 to i32
  %166 = call i32 (i8*, ...) @printf(i8* getelementptr inbounds ([3 x i8], [3 x i8]* @.str.2, i64 0, i64 0), i32 %165)
  br label %167

167:                                              ; preds = %160
  %168 = load i32, i32* %6, align 4
  %169 = add nsw i32 %168, -1
  store i32 %169, i32* %6, align 4
  br label %157

170:                                              ; preds = %157
  ret void
}

declare dso_local i32 @__isoc99_scanf(i8*, ...) #1

; Function Attrs: nounwind readonly
declare dso_local i64 @strlen(i8*) #2

declare dso_local i32 @printf(i8*, ...) #1


!llvm.module.flags = !{!0}
!llvm.ident = !{!1}

!0 = !{i32 1, !"wchar_size", i32 4}
!1 = !{!"clang version 10.0.0-4ubuntu1 "}
